; ModuleID = '56/98.c'
source_filename = "56/98.c"
target datalayout = "e-m:e-p270:32:32-p271:32:32-p272:64:64-i64:64-f80:128-n8:16:32:64-S128"
target triple = "x86_64-pc-linux-gnu"

@.str = private unnamed_addr constant [3 x i8] c"%d\00", align 1
@.str.1 = private unnamed_addr constant [4 x i8] c"\0A%d\00", align 1

; Function Attrs: noinline nounwind uwtable
define dso_local i32 @main(i32 %0, i8** %1) #0 {
  %3 = alloca i32, align 4
  %4 = alloca i32, align 4
  %5 = alloca i8**, align 8
  %6 = alloca i32, align 4
  %7 = alloca i32, align 4
  %8 = alloca [5 x i32], align 16
  %9 = alloca i32, align 4
  %10 = alloca i32, align 4
  %11 = alloca i32, align 4
  store i32 0, i32* %3, align 4
  store i32 %0, i32* %4, align 4
  store i8** %1, i8*** %5, align 8
  %12 = call i32 (i8*, ...) @__isoc99_scanf(i8* getelementptr inbounds ([3 x i8], [3 x i8]* @.str, i64 0, i64 0), i32* %6)
  %13 = load i32, i32* %6, align 4
  store i32 %13, i32* %7, align 4
  store i32 0, i32* %10, align 4
  br label %14

14:                                               ; preds = %19, %2
  %15 = load i32, i32* %6, align 4
  %16 = sdiv i32 %15, 10
  store i32 %16, i32* %6, align 4
  %17 = load i32, i32* %10, align 4
  %18 = add nsw i32 %17, 1
  store i32 %18, i32* %10, align 4
  br label %19

19:                                               ; preds = %14
  %20 = load i32, i32* %6, align 4
  %21 = icmp ne i32 %20, 0
  br i1 %21, label %14, label %22

22:                                               ; preds = %19
  store i32 0, i32* %9, align 4
  br label %23

23:                                               ; preds = %57, %22
  %24 = load i32, i32* %9, align 4
  %25 = load i32, i32* %10, align 4
  %26 = icmp slt i32 %24, %25
  br i1 %26, label %27, label %60

27:                                               ; preds = %23
  %28 = load i32, i32* %7, align 4
  %29 = sitofp i32 %28 to double
  %30 = load i32, i32* %10, align 4
  %31 = sub nsw i32 %30, 1
  %32 = load i32, i32* %9, align 4
  %33 = sub nsw i32 %31, %32
  %34 = sitofp i32 %33 to double
  %35 = call double @pow(double 1.000000e+01, double %34) #3
  %36 = fdiv double %29, %35
  %37 = fptosi double %36 to i32
  %38 = load i32, i32* %9, align 4
  %39 = sext i32 %38 to i64
  %40 = getelementptr inbounds [5 x i32], [5 x i32]* %8, i64 0, i64 %39
  store i32 %37, i32* %40, align 4
  %41 = load i32, i32* %7, align 4
  %42 = sitofp i32 %41 to double
  %43 = load i32, i32* %9, align 4
  %44 = sext i32 %43 to i64
  %45 = getelementptr inbounds [5 x i32], [5 x i32]* %8, i64 0, i64 %44
  %46 = load i32, i32* %45, align 4
  %47 = sitofp i32 %46 to double
  %48 = load i32, i32* %10, align 4
  %49 = sub nsw i32 %48, 1
  %50 = load i32, i32* %9, align 4
  %51 = sub nsw i32 %49, %50
  %52 = sitofp i32 %51 to double
  %53 = call double @pow(double 1.000000e+01, double %52) #3
  %54 = fmul double %47, %53
  %55 = fsub double %42, %54
  %56 = fptosi double %55 to i32
  store i32 %56, i32* %7, align 4
  br label %57

57:                                               ; preds = %27
  %58 = load i32, i32* %9, align 4
  %59 = add nsw i32 %58, 1
  store i32 %59, i32* %9, align 4
  br label %23

60:                                               ; preds = %23
  store i32 0, i32* %11, align 4
  store i32 0, i32* %9, align 4
  br label %61

61:                                               ; preds = %79, %60
  %62 = load i32, i32* %9, align 4
  %63 = load i32, i32* %10, align 4
  %64 = icmp slt i32 %62, %63
  br i1 %64, label %65, label %82

65:                                               ; preds = %61
  %66 = load i32, i32* %11, align 4
  %67 = sitofp i32 %66 to double
  %68 = load i32, i32* %9, align 4
  %69 = sext i32 %68 to i64
  %70 = getelementptr inbounds [5 x i32], [5 x i32]* %8, i64 0, i64 %69
  %71 = load i32, i32* %70, align 4
  %72 = sitofp i32 %71 to double
  %73 = load i32, i32* %9, align 4
  %74 = sitofp i32 %73 to double
  %75 = call double @pow(double 1.000000e+01, double %74) #3
  %76 = fmul double %72, %75
  %77 = fadd double %67, %76
  %78 = fptosi double %77 to i32
  store i32 %78, i32* %11, align 4
  br label %79

79:                                               ; preds = %65
  %80 = load i32, i32* %9, align 4
  %81 = add nsw i32 %80, 1
  store i32 %81, i32* %9, align 4
  br label %61

82:                                               ; preds = %61
  %83 = load i32, i32* %11, align 4
  %84 = call i32 (i8*, ...) @printf(i8* getelementptr inbounds ([4 x i8], [4 x i8]* @.str.1, i64 0, i64 0), i32 %83)
  ret i32 0
}

declare dso_local i32 @__isoc99_scanf(i8*, ...) #1

; Function Attrs: nounwind
declare dso_local double @pow(double, double) #2

declare dso_local i32 @printf(i8*, ...) #1


!llvm.module.flags = !{!0}
!llvm.ident = !{!1}

!0 = !{i32 1, !"wchar_size", i32 4}
!1 = !{!"clang version 10.0.0-4ubuntu1 "}
